; Function Attrs: inlinehint mustprogress nounwind uwtable
define internal fastcc void @"_ZZN4lean11instantiateERKNS_5levelERKNS_8list_refINS_4nameEEERKNS3_IS0_EEEN3$_0D2Ev"(ptr noundef nonnull readonly align 8 captures(none) dereferenceable(16) %0) unnamed_addr #5 align 2 personality ptr @__gxx_personality_v0 {
  %2 = getelementptr inbounds nuw i8, ptr %0, i64 8
  %3 = load ptr, ptr %2, align 8, !tbaa !3
  %4 = ptrtoint ptr %3 to i64
  %5 = and i64 %4, 1
  %.not.i.i = icmp eq i64 %5, 0
  br i1 %.not.i.i, label %6, label %_ZN4lean10object_refD2Ev.exit

6:                                                ; preds = %1
  %7 = load i32, ptr %3, align 4, !tbaa !8
  %8 = icmp sgt i32 %7, 1
  br i1 %8, label %9, label %11, !prof !11

9:                                                ; preds = %6
  %10 = add nsw i32 %7, -1
  store i32 %10, ptr %3, align 4, !tbaa !8
  br label %_ZN4lean10object_refD2Ev.exit

11:                                               ; preds = %6
  %.not.i.i.i = icmp eq i32 %7, 0
  br i1 %.not.i.i.i, label %_ZN4lean10object_refD2Ev.exit, label %12

12:                                               ; preds = %11
  invoke void @lean_dec_ref_cold(ptr noundef nonnull %3)
          to label %_ZN4lean10object_refD2Ev.exit unwind label %13

13:                                               ; preds = %12
  %14 = landingpad { ptr, i32 }
          catch ptr null
  %15 = extractvalue { ptr, i32 } %14, 0
  tail call void @__clang_call_terminate(ptr %15) #21
  unreachable

_ZN4lean10object_refD2Ev.exit:                    ; preds = %1, %9, %11, %12
  %16 = load ptr, ptr %0, align 8, !tbaa !3
  %17 = ptrtoint ptr %16 to i64
  %18 = and i64 %17, 1
  %.not.i.i1 = icmp eq i64 %18, 0
  br i1 %.not.i.i1, label %19, label %_ZN4lean10object_refD2Ev.exit3

19:                                               ; preds = %_ZN4lean10object_refD2Ev.exit
  %20 = load i32, ptr %16, align 4, !tbaa !8
  %21 = icmp sgt i32 %20, 1
  br i1 %21, label %22, label %24, !prof !11

22:                                               ; preds = %19
  %23 = add nsw i32 %20, -1
  store i32 %23, ptr %16, align 4, !tbaa !8
  br label %_ZN4lean10object_refD2Ev.exit3

24:                                               ; preds = %19
  %.not.i.i.i2 = icmp eq i32 %20, 0
  br i1 %.not.i.i.i2, label %_ZN4lean10object_refD2Ev.exit3, label %25

25:                                               ; preds = %24
  invoke void @lean_dec_ref_cold(ptr noundef nonnull %16)
          to label %_ZN4lean10object_refD2Ev.exit3 unwind label %26

26:                                               ; preds = %25
  %27 = landingpad { ptr, i32 }
          catch ptr null
  %28 = extractvalue { ptr, i32 } %27, 0
  tail call void @__clang_call_terminate(ptr %28) #21
  unreachable

_ZN4lean10object_refD2Ev.exit3:                   ; preds = %_ZN4lean10object_refD2Ev.exit, %22, %24, %25
  ret void
}